; Function Attrs: mustprogress nofree norecurse nosync nounwind willreturn memory(argmem: readwrite) uwtable
define { ptr, i32 } @_ZN4pkpy5Bytes6detachEv(ptr nocapture noundef nonnull align 8 dereferenceable(12) %0) local_unnamed_addr #6 align 2 personality ptr @__gxx_personality_v0 {
  %2 = load ptr, ptr %0, align 8
  %3 = getelementptr inbounds i8, ptr %0, i64 8
  %4 = load i32, ptr %3, align 8
  store ptr null, ptr %0, align 8
  store i32 0, ptr %3, align 8
  %.fca.0.insert = insertvalue { ptr, i32 } poison, ptr %2, 0
  %.fca.1.insert = insertvalue { ptr, i32 } %.fca.0.insert, i32 %4, 1
  ret { ptr, i32 } %.fca.1.insert
}